(dp0
S'Thomas'
p1
(dp2
S'digit4attempted'
p3
I1
sS'digit8attempted'
p4
I3
sS'digit7attempted'
p5
I1
sS'digit6attempted'
p6
I1
sS'digit0attempted'
p7
I9
sS'digit3attempted'
p8
I2
sS'login'
p9
I4
sS'digit1attempted'
p10
I6
ss.